; Function Attrs: null_pointer_is_valid sspstrong uwtable
define internal range(i32 0, 3) i32 @match_dfilter(ptr noundef readonly captures(none) %0, ptr noundef %1, ptr noundef %2, ptr noundef %3) #1 {
  %5 = alloca i32, align 4
  %6 = alloca ptr, align 8
  %7 = alloca %struct.epan_dissect, align 8
  call void @llvm.lifetime.start.p0(i64 464, ptr nonnull %7) #23
  call void @llvm.lifetime.start.p0(i64 4, ptr nonnull %5) #23
  call void @llvm.lifetime.start.p0(i64 8, ptr nonnull %6) #23
  %8 = getelementptr inbounds nuw i8, ptr %0, i64 224
  %9 = load ptr, ptr %8, align 8
  %10 = getelementptr inbounds nuw i8, ptr %1, i64 24
  %11 = load i64, ptr %10, align 8
  %12 = call zeroext i1 @wtap_seek_read(ptr noundef %9, i64 noundef %11, ptr noundef %2, ptr noundef nonnull %5, ptr noundef nonnull %6)
  br i1 %12, label %17, label %cf_read_record.exit

cf_read_record.exit:                              ; preds = %4
  %13 = getelementptr inbounds nuw i8, ptr %0, i64 16
  %14 = load ptr, ptr %13, align 8
  %15 = load i32, ptr %5, align 4
  %16 = load ptr, ptr %6, align 8
  call void @report_cfile_read_failure(ptr noundef %14, i32 noundef %15, ptr noundef %16)
  call void @llvm.lifetime.end.p0(i64 8, ptr nonnull %6) #23
  call void @llvm.lifetime.end.p0(i64 4, ptr nonnull %5) #23
  br label %24

17:                                               ; preds = %4
  call void @llvm.lifetime.end.p0(i64 8, ptr nonnull %6) #23
  call void @llvm.lifetime.end.p0(i64 4, ptr nonnull %5) #23
  %18 = load ptr, ptr %0, align 8
  call void @epan_dissect_init(ptr noundef nonnull %7, ptr noundef %18, i1 noundef zeroext true, i1 noundef zeroext false)
  call void @epan_dissect_prime_with_dfilter(ptr noundef nonnull %7, ptr noundef %3)
  %19 = getelementptr inbounds nuw i8, ptr %0, i64 48
  %20 = load i16, ptr %19, align 8
  %21 = zext i16 %20 to i32
  call void @epan_dissect_run(ptr noundef nonnull %7, i32 noundef %21, ptr noundef %2, ptr noundef %1, ptr noundef null)
  %22 = call zeroext i1 @dfilter_apply_edt(ptr noundef %3, ptr noundef nonnull %7)
  %23 = zext i1 %22 to i32
  call void @epan_dissect_cleanup(ptr noundef nonnull %7)
  br label %24

24:                                               ; preds = %cf_read_record.exit, %17
  %.0 = phi i32 [ %23, %17 ], [ 2, %cf_read_record.exit ]
  call void @llvm.lifetime.end.p0(i64 464, ptr nonnull %7) #23
  ret i32 %.0
}